target datalayout = "e-m:e-p270:32:32-p271:32:32-p272:64:64-i64:64-i128:128-f80:128-n8:16:32:64-S128"
target triple = "x86_64-pc-linux-gnu"

%struct.buftag = type { i32, i32, i32, i32, i32 }
%struct.RelFileLocator = type { i32, i32, i32 }
%struct.BufferDesc = type { %struct.buftag, i32, %struct.pg_atomic_uint32, i32, i32, %struct.LWLock }
%struct.pg_atomic_uint32 = type { i32 }
%struct.LWLock = type { i16, %struct.pg_atomic_uint32, %struct.proclist_head }
%struct.proclist_head = type { i32, i32 }

@NLocBuffer = dso_local global i32 0, align 4
@LocalBufferDescriptors = dso_local global ptr null, align 8
@LocalRefCount = dso_local global ptr null, align 8
@LocalBufHash = internal global ptr null, align 8
@.str = private unnamed_addr constant [34 x i8] c"local buffer hash table corrupted\00", align 1
@.str.1 = private unnamed_addr constant [11 x i8] c"localbuf.c\00", align 1
@.str.3 = private unnamed_addr constant [46 x i8] c"block %u of %s is still referenced (local %u)\00", align 1
@MyProcNumber = external global i32, align 4
@__func__.DropRelationLocalBuffers = private unnamed_addr constant [25 x i8] c"DropRelationLocalBuffers\00", align 1

; Function Attrs: inlinehint nounwind uwtable
define internal void @pg_atomic_unlocked_write_u32_impl(ptr noundef %0, i32 noundef %1) #3 {
  %3 = alloca ptr, align 8
  %4 = alloca i32, align 4
  store ptr %0, ptr %3, align 8
  store i32 %1, ptr %4, align 4
  %5 = load i32, ptr %4, align 4
  %6 = load ptr, ptr %3, align 8
  %7 = getelementptr inbounds nuw %struct.pg_atomic_uint32, ptr %6, i32 0, i32 0
  store volatile i32 %5, ptr %7, align 4
  ret void
}

; Function Attrs: inlinehint nounwind uwtable
define internal void @BufTagSetRelForkDetails(ptr noundef %0, i32 noundef %1, i32 noundef %2) #3 {
  %4 = alloca ptr, align 8
  %5 = alloca i32, align 4
  %6 = alloca i32, align 4
  store ptr %0, ptr %4, align 8
  store i32 %1, ptr %5, align 4
  store i32 %2, ptr %6, align 4
  %7 = load i32, ptr %5, align 4
  %8 = load ptr, ptr %4, align 8
  %9 = getelementptr inbounds nuw %struct.buftag, ptr %8, i32 0, i32 2
  store i32 %7, ptr %9, align 4
  %10 = load i32, ptr %6, align 4
  %11 = load ptr, ptr %4, align 8
  %12 = getelementptr inbounds nuw %struct.buftag, ptr %11, i32 0, i32 3
  store i32 %10, ptr %12, align 4
  ret void
}

; Function Attrs: inlinehint nounwind uwtable
define internal i32 @BufTagGetRelNumber(ptr noundef %0) #3 {
  %2 = alloca ptr, align 8
  store ptr %0, ptr %2, align 8
  %3 = load ptr, ptr %2, align 8
  %4 = getelementptr inbounds nuw %struct.buftag, ptr %3, i32 0, i32 2
  %5 = load i32, ptr %4, align 4
  ret i32 %5
}

; Function Attrs: inlinehint nounwind uwtable
define internal i32 @pg_atomic_read_u32_impl(ptr noundef %0) #3 {
  %2 = alloca ptr, align 8
  store ptr %0, ptr %2, align 8
  %3 = load ptr, ptr %2, align 8
  %4 = getelementptr inbounds nuw %struct.pg_atomic_uint32, ptr %3, i32 0, i32 0
  %5 = load volatile i32, ptr %4, align 4
  ret i32 %5
}

; Function Attrs: inlinehint nounwind uwtable
define internal void @pg_atomic_unlocked_write_u32(ptr noundef %0, i32 noundef %1) #3 {
  %3 = alloca ptr, align 8
  %4 = alloca i32, align 4
  store ptr %0, ptr %3, align 8
  store i32 %1, ptr %4, align 4
  %5 = load ptr, ptr %3, align 8
  %6 = load i32, ptr %4, align 4
  call void @pg_atomic_unlocked_write_u32_impl(ptr noundef %5, i32 noundef %6)
  ret void
}

; Function Attrs: inlinehint nounwind uwtable
define internal void @ClearBufferTag(ptr noundef %0) #3 {
  %2 = alloca ptr, align 8
  store ptr %0, ptr %2, align 8
  %3 = load ptr, ptr %2, align 8
  %4 = getelementptr inbounds nuw %struct.buftag, ptr %3, i32 0, i32 0
  store i32 0, ptr %4, align 4
  %5 = load ptr, ptr %2, align 8
  %6 = getelementptr inbounds nuw %struct.buftag, ptr %5, i32 0, i32 1
  store i32 0, ptr %6, align 4
  %7 = load ptr, ptr %2, align 8
  call void @BufTagSetRelForkDetails(ptr noundef %7, i32 noundef 0, i32 noundef -1)
  %8 = load ptr, ptr %2, align 8
  %9 = getelementptr inbounds nuw %struct.buftag, ptr %8, i32 0, i32 4
  store i32 -1, ptr %9, align 4
  ret void
}

; Function Attrs: inlinehint nounwind uwtable
define internal { i64, i32 } @BufTagGetRelFileLocator(ptr noundef %0) #3 {
  %2 = alloca %struct.RelFileLocator, align 4
  %3 = alloca ptr, align 8
  %4 = alloca { i64, i32 }, align 8
  store ptr %0, ptr %3, align 8
  %5 = load ptr, ptr %3, align 8
  %6 = getelementptr inbounds nuw %struct.buftag, ptr %5, i32 0, i32 0
  %7 = load i32, ptr %6, align 4
  %8 = getelementptr inbounds nuw %struct.RelFileLocator, ptr %2, i32 0, i32 0
  store i32 %7, ptr %8, align 4
  %9 = load ptr, ptr %3, align 8
  %10 = getelementptr inbounds nuw %struct.buftag, ptr %9, i32 0, i32 1
  %11 = load i32, ptr %10, align 4
  %12 = getelementptr inbounds nuw %struct.RelFileLocator, ptr %2, i32 0, i32 1
  store i32 %11, ptr %12, align 4
  %13 = load ptr, ptr %3, align 8
  %14 = call i32 @BufTagGetRelNumber(ptr noundef %13)
  %15 = getelementptr inbounds nuw %struct.RelFileLocator, ptr %2, i32 0, i32 2
  store i32 %14, ptr %15, align 4
  call void @llvm.memcpy.p0.p0.i64(ptr align 8 %4, ptr align 4 %2, i64 12, i1 false)
  %16 = load { i64, i32 }, ptr %4, align 8
  ret { i64, i32 } %16
}

; Function Attrs: inlinehint nounwind uwtable
define internal i32 @BufTagGetForkNum(ptr noundef %0) #3 {
  %2 = alloca ptr, align 8
  store ptr %0, ptr %2, align 8
  %3 = load ptr, ptr %2, align 8
  %4 = getelementptr inbounds nuw %struct.buftag, ptr %3, i32 0, i32 3
  %5 = load i32, ptr %4, align 4
  ret i32 %5
}

; Function Attrs: inlinehint nounwind uwtable
define internal zeroext i1 @BufTagMatchesRelFileLocator(ptr noundef %0, ptr noundef %1) #3 {
  %3 = alloca ptr, align 8
  %4 = alloca ptr, align 8
  store ptr %0, ptr %3, align 8
  store ptr %1, ptr %4, align 8
  %5 = load ptr, ptr %3, align 8
  %6 = getelementptr inbounds nuw %struct.buftag, ptr %5, i32 0, i32 0
  %7 = load i32, ptr %6, align 4
  %8 = load ptr, ptr %4, align 8
  %9 = getelementptr inbounds nuw %struct.RelFileLocator, ptr %8, i32 0, i32 0
  %10 = load i32, ptr %9, align 4
  %11 = icmp eq i32 %7, %10
  br i1 %11, label %12, label %27

12:                                               ; preds = %2
  %13 = load ptr, ptr %3, align 8
  %14 = getelementptr inbounds nuw %struct.buftag, ptr %13, i32 0, i32 1
  %15 = load i32, ptr %14, align 4
  %16 = load ptr, ptr %4, align 8
  %17 = getelementptr inbounds nuw %struct.RelFileLocator, ptr %16, i32 0, i32 1
  %18 = load i32, ptr %17, align 4
  %19 = icmp eq i32 %15, %18
  br i1 %19, label %20, label %27

20:                                               ; preds = %12
  %21 = load ptr, ptr %3, align 8
  %22 = call i32 @BufTagGetRelNumber(ptr noundef %21)
  %23 = load ptr, ptr %4, align 8
  %24 = getelementptr inbounds nuw %struct.RelFileLocator, ptr %23, i32 0, i32 2
  %25 = load i32, ptr %24, align 4
  %26 = icmp eq i32 %22, %25
  br label %27

27:                                               ; preds = %20, %12, %2
  %28 = phi i1 [ false, %12 ], [ false, %2 ], [ %26, %20 ]
  ret i1 %28
}

; Function Attrs: inlinehint nounwind uwtable
define internal i32 @pg_atomic_read_u32(ptr noundef %0) #3 {
  %2 = alloca ptr, align 8
  store ptr %0, ptr %2, align 8
  %3 = load ptr, ptr %2, align 8
  %4 = call i32 @pg_atomic_read_u32_impl(ptr noundef %3)
  ret i32 %4
}

; Function Attrs: inlinehint nounwind uwtable
define internal ptr @GetLocalBufferDescriptor(i32 noundef %0) #3 {
  %2 = alloca i32, align 4
  store i32 %0, ptr %2, align 4
  %3 = load ptr, ptr @LocalBufferDescriptors, align 8
  %4 = load i32, ptr %2, align 4
  %5 = zext i32 %4 to i64
  %6 = getelementptr inbounds nuw %struct.BufferDesc, ptr %3, i64 %5
  ret ptr %6
}

; Function Attrs: nounwind uwtable
define dso_local void @DropRelationLocalBuffers(i64 %0, i32 %1, i32 noundef %2, i32 noundef %3) #0 {
  %5 = alloca %struct.RelFileLocator, align 4
  %6 = alloca { i64, i32 }, align 4
  %7 = alloca i32, align 4
  %8 = alloca i32, align 4
  %9 = alloca i32, align 4
  %10 = alloca ptr, align 8
  %11 = alloca ptr, align 8
  %12 = alloca i32, align 4
  %13 = alloca %struct.RelFileLocator, align 4
  %14 = alloca { i64, i32 }, align 8
  %15 = alloca %struct.RelFileLocator, align 4
  %16 = alloca { i64, i32 }, align 8
  %17 = alloca %struct.RelFileLocator, align 4
  %18 = alloca { i64, i32 }, align 8
  %19 = getelementptr inbounds nuw { i64, i32 }, ptr %6, i32 0, i32 0
  store i64 %0, ptr %19, align 4
  %20 = getelementptr inbounds nuw { i64, i32 }, ptr %6, i32 0, i32 1
  store i32 %1, ptr %20, align 4
  call void @llvm.memcpy.p0.p0.i64(ptr align 4 %5, ptr align 4 %6, i64 12, i1 false)
  store i32 %2, ptr %7, align 4
  store i32 %3, ptr %8, align 4
  call void @llvm.lifetime.start.p0(i64 4, ptr %9) #9
  store i32 0, ptr %9, align 4
  br label %21

21:                                               ; preds = %127, %4
  %22 = load i32, ptr %9, align 4
  %23 = load i32, ptr @NLocBuffer, align 4
  %24 = icmp slt i32 %22, %23
  br i1 %24, label %25, label %130

25:                                               ; preds = %21
  call void @llvm.lifetime.start.p0(i64 8, ptr %10) #9
  %26 = load i32, ptr %9, align 4
  %27 = call ptr @GetLocalBufferDescriptor(i32 noundef %26)
  store ptr %27, ptr %10, align 8
  call void @llvm.lifetime.start.p0(i64 8, ptr %11) #9
  call void @llvm.lifetime.start.p0(i64 4, ptr %12) #9
  %28 = load ptr, ptr %10, align 8
  %29 = getelementptr inbounds nuw %struct.BufferDesc, ptr %28, i32 0, i32 2
  %30 = call i32 @pg_atomic_read_u32(ptr noundef %29)
  store i32 %30, ptr %12, align 4
  %31 = load i32, ptr %12, align 4
  %32 = and i32 %31, 33554432
  %33 = icmp ne i32 %32, 0
  br i1 %33, label %34, label %126

34:                                               ; preds = %25
  %35 = load ptr, ptr %10, align 8
  %36 = getelementptr inbounds nuw %struct.BufferDesc, ptr %35, i32 0, i32 0
  %37 = call zeroext i1 @BufTagMatchesRelFileLocator(ptr noundef %36, ptr noundef %5)
  br i1 %37, label %38, label %126

38:                                               ; preds = %34
  %39 = load ptr, ptr %10, align 8
  %40 = getelementptr inbounds nuw %struct.BufferDesc, ptr %39, i32 0, i32 0
  %41 = call i32 @BufTagGetForkNum(ptr noundef %40)
  %42 = load i32, ptr %7, align 4
  %43 = icmp eq i32 %41, %42
  br i1 %43, label %44, label %126

44:                                               ; preds = %38
  %45 = load ptr, ptr %10, align 8
  %46 = getelementptr inbounds nuw %struct.BufferDesc, ptr %45, i32 0, i32 0
  %47 = getelementptr inbounds nuw %struct.buftag, ptr %46, i32 0, i32 4
  %48 = load i32, ptr %47, align 4
  %49 = load i32, ptr %8, align 4
  %50 = icmp uge i32 %48, %49
  br i1 %50, label %51, label %126

51:                                               ; preds = %44
  %52 = load ptr, ptr @LocalRefCount, align 8
  %53 = load i32, ptr %9, align 4
  %54 = sext i32 %53 to i64
  %55 = getelementptr inbounds i32, ptr %52, i64 %54
  %56 = load i32, ptr %55, align 4
  %57 = icmp ne i32 %56, 0
  br i1 %57, label %58, label %98

58:                                               ; preds = %51
  br label %59

59:                                               ; preds = %58
  br i1 true, label %60, label %62

60:                                               ; preds = %59
  %61 = call zeroext i1 @errstart_cold(i32 noundef 21, ptr noundef null) #10
  br i1 %61, label %64, label %95

62:                                               ; preds = %59
  %63 = call zeroext i1 @errstart(i32 noundef 21, ptr noundef null)
  br i1 %63, label %64, label %95

64:                                               ; preds = %62, %60
  %65 = load ptr, ptr %10, align 8
  %66 = getelementptr inbounds nuw %struct.BufferDesc, ptr %65, i32 0, i32 0
  %67 = getelementptr inbounds nuw %struct.buftag, ptr %66, i32 0, i32 4
  %68 = load i32, ptr %67, align 4
  %69 = load ptr, ptr %10, align 8
  %70 = getelementptr inbounds nuw %struct.BufferDesc, ptr %69, i32 0, i32 0
  %71 = call { i64, i32 } @BufTagGetRelFileLocator(ptr noundef %70)
  store { i64, i32 } %71, ptr %14, align 8
  call void @llvm.memcpy.p0.p0.i64(ptr align 4 %13, ptr align 8 %14, i64 12, i1 false)
  %72 = getelementptr inbounds nuw %struct.RelFileLocator, ptr %13, i32 0, i32 1
  %73 = load i32, ptr %72, align 4
  %74 = load ptr, ptr %10, align 8
  %75 = getelementptr inbounds nuw %struct.BufferDesc, ptr %74, i32 0, i32 0
  %76 = call { i64, i32 } @BufTagGetRelFileLocator(ptr noundef %75)
  store { i64, i32 } %76, ptr %16, align 8
  call void @llvm.memcpy.p0.p0.i64(ptr align 4 %15, ptr align 8 %16, i64 12, i1 false)
  %77 = getelementptr inbounds nuw %struct.RelFileLocator, ptr %15, i32 0, i32 0
  %78 = load i32, ptr %77, align 4
  %79 = load ptr, ptr %10, align 8
  %80 = getelementptr inbounds nuw %struct.BufferDesc, ptr %79, i32 0, i32 0
  %81 = call { i64, i32 } @BufTagGetRelFileLocator(ptr noundef %80)
  store { i64, i32 } %81, ptr %18, align 8
  call void @llvm.memcpy.p0.p0.i64(ptr align 4 %17, ptr align 8 %18, i64 12, i1 false)
  %82 = getelementptr inbounds nuw %struct.RelFileLocator, ptr %17, i32 0, i32 2
  %83 = load i32, ptr %82, align 4
  %84 = load i32, ptr @MyProcNumber, align 4
  %85 = load ptr, ptr %10, align 8
  %86 = getelementptr inbounds nuw %struct.BufferDesc, ptr %85, i32 0, i32 0
  %87 = call i32 @BufTagGetForkNum(ptr noundef %86)
  %88 = call ptr @GetRelationPath(i32 noundef %73, i32 noundef %78, i32 noundef %83, i32 noundef %84, i32 noundef %87)
  %89 = load ptr, ptr @LocalRefCount, align 8
  %90 = load i32, ptr %9, align 4
  %91 = sext i32 %90 to i64
  %92 = getelementptr inbounds i32, ptr %89, i64 %91
  %93 = load i32, ptr %92, align 4
  %94 = call i32 (ptr, ...) @errmsg_internal(ptr noundef @.str.3, i32 noundef %68, ptr noundef %88, i32 noundef %93)
  call void @errfinish(ptr noundef @.str.1, i32 noundef 514, ptr noundef @__func__.DropRelationLocalBuffers)
  br label %95

95:                                               ; preds = %64, %62, %60
  unreachable

96:                                               ; No predecessors!
  br label %97

97:                                               ; preds = %96
  br label %98

98:                                               ; preds = %97, %51
  %99 = load ptr, ptr @LocalBufHash, align 8
  %100 = load ptr, ptr %10, align 8
  %101 = getelementptr inbounds nuw %struct.BufferDesc, ptr %100, i32 0, i32 0
  %102 = call ptr @hash_search(ptr noundef %99, ptr noundef %101, i32 noundef 2, ptr noundef null)
  store ptr %102, ptr %11, align 8
  %103 = load ptr, ptr %11, align 8
  %104 = icmp ne ptr %103, null
  br i1 %104, label %116, label %105

105:                                              ; preds = %98
  br label %106

106:                                              ; preds = %105
  br i1 true, label %107, label %109

107:                                              ; preds = %106
  %108 = call zeroext i1 @errstart_cold(i32 noundef 21, ptr noundef null) #10
  br i1 %108, label %111, label %113

109:                                              ; preds = %106
  %110 = call zeroext i1 @errstart(i32 noundef 21, ptr noundef null)
  br i1 %110, label %111, label %113

111:                                              ; preds = %109, %107
  %112 = call i32 (ptr, ...) @errmsg_internal(ptr noundef @.str)
  call void @errfinish(ptr noundef @.str.1, i32 noundef 520, ptr noundef @__func__.DropRelationLocalBuffers)
  br label %113

113:                                              ; preds = %111, %109, %107
  unreachable

114:                                              ; No predecessors!
  br label %115

115:                                              ; preds = %114
  br label %116

116:                                              ; preds = %115, %98
  %117 = load ptr, ptr %10, align 8
  %118 = getelementptr inbounds nuw %struct.BufferDesc, ptr %117, i32 0, i32 0
  call void @ClearBufferTag(ptr noundef %118)
  %119 = load i32, ptr %12, align 4
  %120 = and i32 %119, 4194303
  store i32 %120, ptr %12, align 4
  %121 = load i32, ptr %12, align 4
  %122 = and i32 %121, -3932161
  store i32 %122, ptr %12, align 4
  %123 = load ptr, ptr %10, align 8
  %124 = getelementptr inbounds nuw %struct.BufferDesc, ptr %123, i32 0, i32 2
  %125 = load i32, ptr %12, align 4
  call void @pg_atomic_unlocked_write_u32(ptr noundef %124, i32 noundef %125)
  br label %126

126:                                              ; preds = %116, %44, %38, %34, %25
  call void @llvm.lifetime.end.p0(i64 4, ptr %12) #9
  call void @llvm.lifetime.end.p0(i64 8, ptr %11) #9
  call void @llvm.lifetime.end.p0(i64 8, ptr %10) #9
  br label %127

127:                                              ; preds = %126
  %128 = load i32, ptr %9, align 4
  %129 = add i32 %128, 1
  store i32 %129, ptr %9, align 4
  br label %21, !llvm.loop !12

130:                                              ; preds = %21
  call void @llvm.lifetime.end.p0(i64 4, ptr %9) #9
  ret void
}