; Function Attrs: nounwind uwtable
define dso_local void @DropRelationLocalBuffers(i64 %0, i32 %1, i32 noundef %2, i32 noundef %3) local_unnamed_addr #0 {
  %.sroa.0.0.extract.trunc = trunc i64 %0 to i32
  %.sroa.2.0.extract.shift = lshr i64 %0, 32
  %.sroa.2.0.extract.trunc = trunc nuw i64 %.sroa.2.0.extract.shift to i32
  %5 = load i32, ptr @NLocBuffer, align 4
  %6 = icmp sgt i32 %5, 0
  br i1 %6, label %.lr.ph.preheader, label %._crit_edge

.lr.ph.preheader:                                 ; preds = %4
  %.pre67 = load ptr, ptr @LocalBufferDescriptors, align 8
  br label %.lr.ph

.lr.ph:                                           ; preds = %.lr.ph.preheader, %BufTagMatchesRelFileLocator.exit.thread
  %7 = phi i32 [ %5, %.lr.ph.preheader ], [ %50, %BufTagMatchesRelFileLocator.exit.thread ]
  %8 = phi ptr [ %.pre67, %.lr.ph.preheader ], [ %51, %BufTagMatchesRelFileLocator.exit.thread ]
  %indvars.iv = phi i64 [ 0, %.lr.ph.preheader ], [ %indvars.iv.next, %BufTagMatchesRelFileLocator.exit.thread ]
  %9 = getelementptr inbounds nuw %struct.BufferDesc, ptr %8, i64 %indvars.iv
  %10 = getelementptr inbounds nuw i8, ptr %9, i64 24
  %11 = load volatile i32, ptr %10, align 4
  %12 = and i32 %11, 33554432
  %.not = icmp eq i32 %12, 0
  br i1 %.not, label %BufTagMatchesRelFileLocator.exit.thread, label %13

13:                                               ; preds = %.lr.ph
  %14 = load i32, ptr %9, align 4
  %15 = icmp eq i32 %14, %.sroa.0.0.extract.trunc
  br i1 %15, label %16, label %BufTagMatchesRelFileLocator.exit.thread

16:                                               ; preds = %13
  %17 = getelementptr inbounds nuw i8, ptr %9, i64 4
  %18 = load i32, ptr %17, align 4
  %19 = icmp eq i32 %18, %.sroa.2.0.extract.trunc
  br i1 %19, label %BufTagMatchesRelFileLocator.exit, label %BufTagMatchesRelFileLocator.exit.thread

BufTagMatchesRelFileLocator.exit:                 ; preds = %16
  %20 = getelementptr i8, ptr %9, i64 8
  %.val.i = load i32, ptr %20, align 4
  %21 = icmp eq i32 %.val.i, %1
  br i1 %21, label %22, label %BufTagMatchesRelFileLocator.exit.thread

22:                                               ; preds = %BufTagMatchesRelFileLocator.exit
  %23 = getelementptr i8, ptr %9, i64 12
  %.val = load i32, ptr %23, align 4
  %24 = icmp eq i32 %.val, %2
  br i1 %24, label %25, label %BufTagMatchesRelFileLocator.exit.thread

25:                                               ; preds = %22
  %26 = getelementptr inbounds nuw i8, ptr %9, i64 16
  %27 = load i32, ptr %26, align 4
  %.not39 = icmp ult i32 %27, %3
  br i1 %.not39, label %BufTagMatchesRelFileLocator.exit.thread, label %28

28:                                               ; preds = %25
  %29 = load ptr, ptr @LocalRefCount, align 8
  %30 = getelementptr inbounds nuw i32, ptr %29, i64 %indvars.iv
  %31 = load i32, ptr %30, align 4
  %.not40 = icmp eq i32 %31, 0
  br i1 %.not40, label %42, label %32

32:                                               ; preds = %28
  %33 = tail call zeroext i1 @errstart_cold(i32 noundef 21, ptr noundef null) #15
  tail call void @llvm.assume(i1 %33)
  %34 = load i32, ptr %26, align 4
  %35 = load i64, ptr %9, align 4
  %.val.i43 = load i32, ptr %20, align 4
  %.sroa.113.0.extract.shift = lshr i64 %35, 32
  %.sroa.113.0.extract.trunc = trunc nuw i64 %.sroa.113.0.extract.shift to i32
  %.sroa.06.0.extract.trunc = trunc i64 %35 to i32
  %36 = load i32, ptr @MyProcNumber, align 4
  %.val42 = load i32, ptr %23, align 4
  %37 = tail call ptr @GetRelationPath(i32 noundef %.sroa.113.0.extract.trunc, i32 noundef %.sroa.06.0.extract.trunc, i32 noundef %.val.i43, i32 noundef %36, i32 noundef %.val42) #14
  %38 = load ptr, ptr @LocalRefCount, align 8
  %39 = getelementptr inbounds nuw i32, ptr %38, i64 %indvars.iv
  %40 = load i32, ptr %39, align 4
  %41 = tail call i32 (ptr, ...) @errmsg_internal(ptr noundef nonnull @.str.3, i32 noundef %34, ptr noundef %37, i32 noundef %40) #14
  tail call void @errfinish(ptr noundef nonnull @.str.1, i32 noundef 514, ptr noundef nonnull @__func__.DropRelationLocalBuffers) #14
  unreachable

42:                                               ; preds = %28
  %43 = load ptr, ptr @LocalBufHash, align 8
  %44 = tail call ptr @hash_search(ptr noundef %43, ptr noundef nonnull %9, i32 noundef 2, ptr noundef null) #14
  %.not41 = icmp eq ptr %44, null
  br i1 %.not41, label %45, label %48

45:                                               ; preds = %42
  %46 = tail call zeroext i1 @errstart_cold(i32 noundef 21, ptr noundef null) #15
  tail call void @llvm.assume(i1 %46)
  %47 = tail call i32 (ptr, ...) @errmsg_internal(ptr noundef nonnull @.str) #14
  tail call void @errfinish(ptr noundef nonnull @.str.1, i32 noundef 520, ptr noundef nonnull @__func__.DropRelationLocalBuffers) #14
  unreachable

48:                                               ; preds = %42
  store i32 0, ptr %9, align 4
  store i32 0, ptr %17, align 4
  store i32 0, ptr %20, align 4
  store i32 -1, ptr %23, align 4
  store i32 -1, ptr %26, align 4
  %49 = and i32 %11, 262143
  store volatile i32 %49, ptr %10, align 4
  %.pre = load ptr, ptr @LocalBufferDescriptors, align 8
  %.pre68 = load i32, ptr @NLocBuffer, align 4
  br label %BufTagMatchesRelFileLocator.exit.thread

BufTagMatchesRelFileLocator.exit.thread:          ; preds = %13, %16, %48, %25, %22, %BufTagMatchesRelFileLocator.exit, %.lr.ph
  %50 = phi i32 [ %7, %13 ], [ %7, %16 ], [ %.pre68, %48 ], [ %7, %25 ], [ %7, %22 ], [ %7, %BufTagMatchesRelFileLocator.exit ], [ %7, %.lr.ph ]
  %51 = phi ptr [ %8, %13 ], [ %8, %16 ], [ %.pre, %48 ], [ %8, %25 ], [ %8, %22 ], [ %8, %BufTagMatchesRelFileLocator.exit ], [ %8, %.lr.ph ]
  %indvars.iv.next = add nuw nsw i64 %indvars.iv, 1
  %52 = sext i32 %50 to i64
  %53 = icmp slt i64 %indvars.iv.next, %52
  br i1 %53, label %.lr.ph, label %._crit_edge, !llvm.loop !11

._crit_edge:                                      ; preds = %BufTagMatchesRelFileLocator.exit.thread, %4
  ret void
}